target datalayout = "e-m:e-p270:32:32-p271:32:32-p272:64:64-i64:64-i128:128-f80:128-n8:16:32:64-S128"
target triple = "x86_64-pc-linux-gnu"

@_ZTISt13runtime_error = external constant ptr
@.str.9 = private unnamed_addr constant [51 x i8] c"gl_map_texture_format(): invalid component format!\00", align 1
@.str.10 = private unnamed_addr constant [47 x i8] c"gl_map_texture_format(): invalid pixel format!\00", align 1
@.str.11 = private unnamed_addr constant [82 x i8] c"gl_map_texture_format(): component format unsupported for the given pixel format!\00", align 1

; Function Attrs: mustprogress uwtable
define internal void @_ZN7nanoguiL21gl_map_texture_formatERNS_7Texture11PixelFormatERNS0_15ComponentFormatERjS5_S5_(ptr noundef nonnull align 1 dereferenceable(1) %0, ptr noundef nonnull align 1 dereferenceable(1) %1, ptr noundef nonnull align 4 dereferenceable(4) %2, ptr noundef nonnull align 4 dereferenceable(4) %3, ptr noundef nonnull align 4 dereferenceable(4) %4) #0 personality ptr @__gxx_personality_v0 {
  %6 = alloca ptr, align 8
  %7 = alloca ptr, align 8
  %8 = alloca ptr, align 8
  %9 = alloca ptr, align 8
  %10 = alloca ptr, align 8
  %11 = alloca ptr, align 8
  %12 = alloca i32, align 4
  store ptr %0, ptr %6, align 8
  store ptr %1, ptr %7, align 8
  store ptr %2, ptr %8, align 8
  store ptr %3, ptr %9, align 8
  store ptr %4, ptr %10, align 8
  %13 = load ptr, ptr %6, align 8
  %14 = load i8, ptr %13, align 1
  %15 = icmp eq i8 %14, 4
  br i1 %15, label %16, label %18

16:                                               ; preds = %5
  %17 = load ptr, ptr %6, align 8
  store i8 2, ptr %17, align 1
  br label %25

18:                                               ; preds = %5
  %19 = load ptr, ptr %6, align 8
  %20 = load i8, ptr %19, align 1
  %21 = icmp eq i8 %20, 5
  br i1 %21, label %22, label %24

22:                                               ; preds = %18
  %23 = load ptr, ptr %6, align 8
  store i8 3, ptr %23, align 1
  br label %24

24:                                               ; preds = %22, %18
  br label %25

25:                                               ; preds = %24, %16
  %26 = load ptr, ptr %10, align 8
  store i32 0, ptr %26, align 4
  %27 = load ptr, ptr %9, align 8
  store i32 0, ptr %27, align 4
  %28 = load ptr, ptr %8, align 8
  store i32 0, ptr %28, align 4
  %29 = load ptr, ptr %6, align 8
  %30 = load i8, ptr %29, align 1
  switch i8 %30, label %127 [
    i8 0, label %31
    i8 1, label %49
    i8 2, label %67
    i8 3, label %85
    i8 6, label %103
    i8 7, label %115
  ]

31:                                               ; preds = %25
  %32 = load ptr, ptr %8, align 8
  store i32 6403, ptr %32, align 4
  %33 = load ptr, ptr %7, align 8
  %34 = load i8, ptr %33, align 1
  switch i8 %34, label %47 [
    i8 2, label %35
    i8 4, label %37
    i8 9, label %39
    i8 10, label %41
    i8 1, label %43
    i8 3, label %45
  ]

35:                                               ; preds = %31
  %36 = load ptr, ptr %10, align 8
  store i32 33321, ptr %36, align 4
  br label %48

37:                                               ; preds = %31
  %38 = load ptr, ptr %10, align 8
  store i32 33322, ptr %38, align 4
  br label %48

39:                                               ; preds = %31
  %40 = load ptr, ptr %10, align 8
  store i32 33325, ptr %40, align 4
  br label %48

41:                                               ; preds = %31
  %42 = load ptr, ptr %10, align 8
  store i32 33326, ptr %42, align 4
  br label %48

43:                                               ; preds = %31
  %44 = load ptr, ptr %10, align 8
  store i32 36756, ptr %44, align 4
  br label %48

45:                                               ; preds = %31
  %46 = load ptr, ptr %10, align 8
  store i32 36760, ptr %46, align 4
  br label %48

47:                                               ; preds = %31
  br label %48

48:                                               ; preds = %47, %45, %43, %41, %39, %37, %35
  br label %128

49:                                               ; preds = %25
  %50 = load ptr, ptr %8, align 8
  store i32 33319, ptr %50, align 4
  %51 = load ptr, ptr %7, align 8
  %52 = load i8, ptr %51, align 1
  switch i8 %52, label %65 [
    i8 2, label %53
    i8 4, label %55
    i8 9, label %57
    i8 10, label %59
    i8 1, label %61
    i8 3, label %63
  ]

53:                                               ; preds = %49
  %54 = load ptr, ptr %10, align 8
  store i32 33323, ptr %54, align 4
  br label %66

55:                                               ; preds = %49
  %56 = load ptr, ptr %10, align 8
  store i32 33324, ptr %56, align 4
  br label %66

57:                                               ; preds = %49
  %58 = load ptr, ptr %10, align 8
  store i32 33327, ptr %58, align 4
  br label %66

59:                                               ; preds = %49
  %60 = load ptr, ptr %10, align 8
  store i32 33328, ptr %60, align 4
  br label %66

61:                                               ; preds = %49
  %62 = load ptr, ptr %10, align 8
  store i32 36757, ptr %62, align 4
  br label %66

63:                                               ; preds = %49
  %64 = load ptr, ptr %10, align 8
  store i32 36761, ptr %64, align 4
  br label %66

65:                                               ; preds = %49
  br label %66

66:                                               ; preds = %65, %63, %61, %59, %57, %55, %53
  br label %128

67:                                               ; preds = %25
  %68 = load ptr, ptr %8, align 8
  store i32 6407, ptr %68, align 4
  %69 = load ptr, ptr %7, align 8
  %70 = load i8, ptr %69, align 1
  switch i8 %70, label %83 [
    i8 2, label %71
    i8 4, label %73
    i8 9, label %75
    i8 10, label %77
    i8 1, label %79
    i8 3, label %81
  ]

71:                                               ; preds = %67
  %72 = load ptr, ptr %10, align 8
  store i32 32849, ptr %72, align 4
  br label %84

73:                                               ; preds = %67
  %74 = load ptr, ptr %10, align 8
  store i32 32852, ptr %74, align 4
  br label %84

75:                                               ; preds = %67
  %76 = load ptr, ptr %10, align 8
  store i32 34843, ptr %76, align 4
  br label %84

77:                                               ; preds = %67
  %78 = load ptr, ptr %10, align 8
  store i32 34837, ptr %78, align 4
  br label %84

79:                                               ; preds = %67
  %80 = load ptr, ptr %10, align 8
  store i32 36758, ptr %80, align 4
  br label %84

81:                                               ; preds = %67
  %82 = load ptr, ptr %10, align 8
  store i32 36762, ptr %82, align 4
  br label %84

83:                                               ; preds = %67
  br label %84

84:                                               ; preds = %83, %81, %79, %77, %75, %73, %71
  br label %128

85:                                               ; preds = %25
  %86 = load ptr, ptr %8, align 8
  store i32 6408, ptr %86, align 4
  %87 = load ptr, ptr %7, align 8
  %88 = load i8, ptr %87, align 1
  switch i8 %88, label %101 [
    i8 2, label %89
    i8 4, label %91
    i8 9, label %93
    i8 10, label %95
    i8 1, label %97
    i8 3, label %99
  ]

89:                                               ; preds = %85
  %90 = load ptr, ptr %10, align 8
  store i32 32856, ptr %90, align 4
  br label %102

91:                                               ; preds = %85
  %92 = load ptr, ptr %10, align 8
  store i32 32859, ptr %92, align 4
  br label %102

93:                                               ; preds = %85
  %94 = load ptr, ptr %10, align 8
  store i32 34842, ptr %94, align 4
  br label %102

95:                                               ; preds = %85
  %96 = load ptr, ptr %10, align 8
  store i32 34836, ptr %96, align 4
  br label %102

97:                                               ; preds = %85
  %98 = load ptr, ptr %10, align 8
  store i32 36759, ptr %98, align 4
  br label %102

99:                                               ; preds = %85
  %100 = load ptr, ptr %10, align 8
  store i32 36763, ptr %100, align 4
  br label %102

101:                                              ; preds = %85
  br label %102

102:                                              ; preds = %101, %99, %97, %95, %93, %91, %89
  br label %128

103:                                              ; preds = %25
  %104 = load ptr, ptr %8, align 8
  store i32 6402, ptr %104, align 4
  %105 = load ptr, ptr %7, align 8
  %106 = load i8, ptr %105, align 1
  switch i8 %106, label %113 [
    i8 1, label %107
    i8 2, label %107
    i8 3, label %107
    i8 4, label %107
    i8 5, label %107
    i8 6, label %107
    i8 9, label %110
    i8 10, label %110
  ]

107:                                              ; preds = %103, %103, %103, %103, %103, %103
  %108 = load ptr, ptr %7, align 8
  store i8 6, ptr %108, align 1
  %109 = load ptr, ptr %10, align 8
  store i32 33189, ptr %109, align 4
  br label %114

110:                                              ; preds = %103, %103
  %111 = load ptr, ptr %7, align 8
  store i8 10, ptr %111, align 1
  %112 = load ptr, ptr %10, align 8
  store i32 36012, ptr %112, align 4
  br label %114

113:                                              ; preds = %103
  br label %114

114:                                              ; preds = %113, %110, %107
  br label %128

115:                                              ; preds = %25
  %116 = load ptr, ptr %8, align 8
  store i32 34041, ptr %116, align 4
  %117 = load ptr, ptr %7, align 8
  %118 = load i8, ptr %117, align 1
  switch i8 %118, label %125 [
    i8 1, label %119
    i8 2, label %119
    i8 3, label %119
    i8 4, label %119
    i8 5, label %119
    i8 6, label %119
    i8 9, label %122
    i8 10, label %122
  ]

119:                                              ; preds = %115, %115, %115, %115, %115, %115
  %120 = load ptr, ptr %7, align 8
  store i8 6, ptr %120, align 1
  %121 = load ptr, ptr %10, align 8
  store i32 33190, ptr %121, align 4
  br label %126

122:                                              ; preds = %115, %115
  %123 = load ptr, ptr %7, align 8
  store i8 10, ptr %123, align 1
  %124 = load ptr, ptr %10, align 8
  store i32 36012, ptr %124, align 4
  br label %126

125:                                              ; preds = %115
  br label %126

126:                                              ; preds = %125, %122, %119
  br label %128

127:                                              ; preds = %25
  br label %128

128:                                              ; preds = %127, %126, %114, %102, %84, %66, %48
  %129 = load ptr, ptr %7, align 8
  %130 = load i8, ptr %129, align 1
  switch i8 %130, label %143 [
    i8 1, label %131
    i8 2, label %133
    i8 3, label %135
    i8 4, label %137
    i8 9, label %139
    i8 10, label %141
  ]

131:                                              ; preds = %128
  %132 = load ptr, ptr %9, align 8
  store i32 5120, ptr %132, align 4
  br label %144

133:                                              ; preds = %128
  %134 = load ptr, ptr %9, align 8
  store i32 5121, ptr %134, align 4
  br label %144

135:                                              ; preds = %128
  %136 = load ptr, ptr %9, align 8
  store i32 5122, ptr %136, align 4
  br label %144

137:                                              ; preds = %128
  %138 = load ptr, ptr %9, align 8
  store i32 5123, ptr %138, align 4
  br label %144

139:                                              ; preds = %128
  %140 = load ptr, ptr %9, align 8
  store i32 5131, ptr %140, align 4
  br label %144

141:                                              ; preds = %128
  %142 = load ptr, ptr %9, align 8
  store i32 5126, ptr %142, align 4
  br label %144

143:                                              ; preds = %128
  br label %144

144:                                              ; preds = %143, %141, %139, %137, %135, %133, %131
  %145 = load ptr, ptr %9, align 8
  %146 = load i32, ptr %145, align 4
  %147 = icmp eq i32 %146, 0
  br i1 %147, label %148, label %155

148:                                              ; preds = %144
  %149 = call ptr @__cxa_allocate_exception(i64 16) #8
  invoke void @_ZNSt13runtime_errorC1EPKc(ptr noundef nonnull align 8 dereferenceable(16) %149, ptr noundef @.str.9)
          to label %150 unwind label %151

150:                                              ; preds = %148
  call void @__cxa_throw(ptr %149, ptr @_ZTISt13runtime_error, ptr @_ZNSt13runtime_errorD1Ev) #9
  unreachable

151:                                              ; preds = %148
  %152 = landingpad { ptr, i32 }
          cleanup
  %153 = extractvalue { ptr, i32 } %152, 0
  store ptr %153, ptr %11, align 8
  %154 = extractvalue { ptr, i32 } %152, 1
  store i32 %154, ptr %12, align 4
  call void @__cxa_free_exception(ptr %149) #8
  br label %178

155:                                              ; preds = %144
  %156 = load ptr, ptr %8, align 8
  %157 = load i32, ptr %156, align 4
  %158 = icmp eq i32 %157, 0
  br i1 %158, label %159, label %166

159:                                              ; preds = %155
  %160 = call ptr @__cxa_allocate_exception(i64 16) #8
  invoke void @_ZNSt13runtime_errorC1EPKc(ptr noundef nonnull align 8 dereferenceable(16) %160, ptr noundef @.str.10)
          to label %161 unwind label %162

161:                                              ; preds = %159
  call void @__cxa_throw(ptr %160, ptr @_ZTISt13runtime_error, ptr @_ZNSt13runtime_errorD1Ev) #9
  unreachable

162:                                              ; preds = %159
  %163 = landingpad { ptr, i32 }
          cleanup
  %164 = extractvalue { ptr, i32 } %163, 0
  store ptr %164, ptr %11, align 8
  %165 = extractvalue { ptr, i32 } %163, 1
  store i32 %165, ptr %12, align 4
  call void @__cxa_free_exception(ptr %160) #8
  br label %178

166:                                              ; preds = %155
  %167 = load ptr, ptr %10, align 8
  %168 = load i32, ptr %167, align 4
  %169 = icmp eq i32 %168, 0
  br i1 %169, label %170, label %177

170:                                              ; preds = %166
  %171 = call ptr @__cxa_allocate_exception(i64 16) #8
  invoke void @_ZNSt13runtime_errorC1EPKc(ptr noundef nonnull align 8 dereferenceable(16) %171, ptr noundef @.str.11)
          to label %172 unwind label %173

172:                                              ; preds = %170
  call void @__cxa_throw(ptr %171, ptr @_ZTISt13runtime_error, ptr @_ZNSt13runtime_errorD1Ev) #9
  unreachable

173:                                              ; preds = %170
  %174 = landingpad { ptr, i32 }
          cleanup
  %175 = extractvalue { ptr, i32 } %174, 0
  store ptr %175, ptr %11, align 8
  %176 = extractvalue { ptr, i32 } %174, 1
  store i32 %176, ptr %12, align 4
  call void @__cxa_free_exception(ptr %171) #8
  br label %178

177:                                              ; preds = %166
  ret void

178:                                              ; preds = %173, %162, %151
  %179 = load ptr, ptr %11, align 8
  %180 = load i32, ptr %12, align 4
  %181 = insertvalue { ptr, i32 } poison, ptr %179, 0
  %182 = insertvalue { ptr, i32 } %181, i32 %180, 1
  resume { ptr, i32 } %182
}