; Function Attrs: mustprogress uwtable
define internal fastcc void @_ZN7nanoguiL21gl_map_texture_formatERNS_7Texture11PixelFormatERNS0_15ComponentFormatERjS5_S5_(ptr nocapture noundef nonnull align 1 dereferenceable(1) %0, ptr nocapture noundef nonnull align 1 dereferenceable(1) %1, ptr nocapture noundef nonnull align 4 dereferenceable(4) %2, ptr nocapture noundef nonnull align 4 dereferenceable(4) %3, ptr nocapture noundef nonnull align 4 dereferenceable(4) %4) unnamed_addr #0 personality ptr @__gxx_personality_v0 {
  %6 = load i8, ptr %0, align 1
  switch i8 %6, label %8 [
    i8 4, label %.sink.split
    i8 5, label %7
  ]

7:                                                ; preds = %5
  br label %.sink.split

.sink.split:                                      ; preds = %5, %7
  %.sink = phi i8 [ 3, %7 ], [ 2, %5 ]
  store i8 %.sink, ptr %0, align 1
  br label %8

8:                                                ; preds = %.sink.split, %5
  store i32 0, ptr %4, align 4
  store i32 0, ptr %3, align 4
  store i32 0, ptr %2, align 4
  %9 = load i8, ptr %0, align 1
  switch i8 %9, label %thread-pre-split [
    i8 0, label %10
    i8 1, label %13
    i8 2, label %16
    i8 3, label %19
    i8 6, label %22
    i8 7, label %26
  ]

10:                                               ; preds = %8
  store i32 6403, ptr %2, align 4
  %11 = load i8, ptr %1, align 1
  %switch.tableidx = add i8 %11, -1
  %12 = icmp ult i8 %switch.tableidx, 10
  br i1 %12, label %switch.hole_check, label %38

13:                                               ; preds = %8
  store i32 33319, ptr %2, align 4
  %14 = load i8, ptr %1, align 1
  %switch.tableidx72 = add i8 %14, -1
  %15 = icmp ult i8 %switch.tableidx72, 10
  br i1 %15, label %switch.hole_check73, label %38

16:                                               ; preds = %8
  store i32 6407, ptr %2, align 4
  %17 = load i8, ptr %1, align 1
  %switch.tableidx81 = add i8 %17, -1
  %18 = icmp ult i8 %switch.tableidx81, 10
  br i1 %18, label %switch.hole_check82, label %38

19:                                               ; preds = %8
  store i32 6408, ptr %2, align 4
  %20 = load i8, ptr %1, align 1
  %switch.tableidx90 = add i8 %20, -1
  %21 = icmp ult i8 %switch.tableidx90, 10
  br i1 %21, label %switch.hole_check91, label %38

22:                                               ; preds = %8
  store i32 6402, ptr %2, align 4
  %23 = load i8, ptr %1, align 1
  switch i8 %23, label %38 [
    i8 1, label %24
    i8 2, label %24
    i8 3, label %24
    i8 4, label %24
    i8 5, label %24
    i8 6, label %24
    i8 9, label %25
    i8 10, label %25
  ]

24:                                               ; preds = %22, %22, %22, %22, %22, %22
  store i8 6, ptr %1, align 1
  br label %thread-pre-split.sink.split

25:                                               ; preds = %22, %22
  store i8 10, ptr %1, align 1
  br label %thread-pre-split.sink.split

26:                                               ; preds = %8
  store i32 34041, ptr %2, align 4
  %27 = load i8, ptr %1, align 1
  switch i8 %27, label %38 [
    i8 1, label %28
    i8 2, label %28
    i8 3, label %28
    i8 4, label %28
    i8 5, label %28
    i8 6, label %28
    i8 9, label %29
    i8 10, label %29
  ]

28:                                               ; preds = %26, %26, %26, %26, %26, %26
  store i8 6, ptr %1, align 1
  br label %thread-pre-split.sink.split

29:                                               ; preds = %26, %26
  store i8 10, ptr %1, align 1
  br label %thread-pre-split.sink.split

switch.hole_check:                                ; preds = %10
  %switch.maskindex = zext nneg i8 %switch.tableidx to i16
  %switch.shifted = lshr i16 783, %switch.maskindex
  %30 = and i16 %switch.shifted, 1
  %switch.lobit.not = icmp eq i16 %30, 0
  br i1 %switch.lobit.not, label %38, label %switch.lookup

switch.lookup:                                    ; preds = %switch.hole_check
  %31 = zext nneg i8 %switch.tableidx to i64
  %switch.gep = getelementptr inbounds [10 x i32], ptr @switch.table._ZN7nanoguiL21gl_map_texture_formatERNS_7Texture11PixelFormatERNS0_15ComponentFormatERjS5_S5_, i64 0, i64 %31
  %switch.load = load i32, ptr %switch.gep, align 4
  br label %thread-pre-split.sink.split

switch.hole_check73:                              ; preds = %13
  %switch.maskindex75 = zext nneg i8 %switch.tableidx72 to i16
  %switch.shifted76 = lshr i16 783, %switch.maskindex75
  %32 = and i16 %switch.shifted76, 1
  %switch.lobit77.not = icmp eq i16 %32, 0
  br i1 %switch.lobit77.not, label %38, label %switch.lookup74

switch.lookup74:                                  ; preds = %switch.hole_check73
  %33 = zext nneg i8 %switch.tableidx72 to i64
  %switch.gep78 = getelementptr inbounds [10 x i32], ptr @switch.table._ZN7nanoguiL21gl_map_texture_formatERNS_7Texture11PixelFormatERNS0_15ComponentFormatERjS5_S5_.2, i64 0, i64 %33
  %switch.load79 = load i32, ptr %switch.gep78, align 4
  br label %thread-pre-split.sink.split

switch.hole_check82:                              ; preds = %16
  %switch.maskindex84 = zext nneg i8 %switch.tableidx81 to i16
  %switch.shifted85 = lshr i16 783, %switch.maskindex84
  %34 = and i16 %switch.shifted85, 1
  %switch.lobit86.not = icmp eq i16 %34, 0
  br i1 %switch.lobit86.not, label %38, label %switch.lookup83

switch.lookup83:                                  ; preds = %switch.hole_check82
  %35 = zext nneg i8 %switch.tableidx81 to i64
  %switch.gep87 = getelementptr inbounds [10 x i32], ptr @switch.table._ZN7nanoguiL21gl_map_texture_formatERNS_7Texture11PixelFormatERNS0_15ComponentFormatERjS5_S5_.3, i64 0, i64 %35
  %switch.load88 = load i32, ptr %switch.gep87, align 4
  br label %thread-pre-split.sink.split

switch.hole_check91:                              ; preds = %19
  %switch.maskindex93 = zext nneg i8 %switch.tableidx90 to i16
  %switch.shifted94 = lshr i16 783, %switch.maskindex93
  %36 = and i16 %switch.shifted94, 1
  %switch.lobit95.not = icmp eq i16 %36, 0
  br i1 %switch.lobit95.not, label %38, label %switch.lookup92

switch.lookup92:                                  ; preds = %switch.hole_check91
  %37 = zext nneg i8 %switch.tableidx90 to i64
  %switch.gep96 = getelementptr inbounds [10 x i32], ptr @switch.table._ZN7nanoguiL21gl_map_texture_formatERNS_7Texture11PixelFormatERNS0_15ComponentFormatERjS5_S5_.4, i64 0, i64 %37
  %switch.load97 = load i32, ptr %switch.gep96, align 4
  br label %thread-pre-split.sink.split

thread-pre-split.sink.split:                      ; preds = %switch.lookup92, %switch.lookup83, %switch.lookup74, %switch.lookup, %28, %29, %24, %25
  %.sink68 = phi i32 [ 36012, %25 ], [ 33189, %24 ], [ 36012, %29 ], [ 33190, %28 ], [ %switch.load, %switch.lookup ], [ %switch.load79, %switch.lookup74 ], [ %switch.load88, %switch.lookup83 ], [ %switch.load97, %switch.lookup92 ]
  store i32 %.sink68, ptr %4, align 4
  br label %thread-pre-split

thread-pre-split:                                 ; preds = %thread-pre-split.sink.split, %8
  %.pr = load i8, ptr %1, align 1
  br label %38

38:                                               ; preds = %switch.hole_check91, %19, %switch.hole_check82, %16, %switch.hole_check73, %13, %switch.hole_check, %10, %thread-pre-split, %26, %22
  %39 = phi i8 [ %.pr, %thread-pre-split ], [ %27, %26 ], [ %23, %22 ], [ %20, %19 ], [ %17, %16 ], [ %14, %13 ], [ %11, %10 ], [ %11, %switch.hole_check ], [ %14, %switch.hole_check73 ], [ %17, %switch.hole_check82 ], [ %20, %switch.hole_check91 ]
  %switch.tableidx99 = add i8 %39, -1
  %40 = icmp ult i8 %switch.tableidx99, 10
  br i1 %40, label %switch.hole_check100, label %41

41:                                               ; preds = %switch.hole_check100, %38
  %.pr67 = load i32, ptr %3, align 4
  %42 = icmp eq i32 %.pr67, 0
  br i1 %42, label %43, label %.thread

43:                                               ; preds = %41
  %44 = tail call ptr @__cxa_allocate_exception(i64 16) #8
  invoke void @_ZNSt13runtime_errorC1EPKc(ptr noundef nonnull align 8 dereferenceable(16) %44, ptr noundef nonnull @.str.9)
          to label %45 unwind label %46

45:                                               ; preds = %43
  tail call void @__cxa_throw(ptr nonnull %44, ptr nonnull @_ZTISt13runtime_error, ptr nonnull @_ZNSt13runtime_errorD1Ev) #9
  unreachable

46:                                               ; preds = %43
  %47 = landingpad { ptr, i32 }
          cleanup
  br label %66

switch.hole_check100:                             ; preds = %38
  %switch.maskindex102 = zext nneg i8 %switch.tableidx99 to i16
  %switch.shifted103 = lshr i16 783, %switch.maskindex102
  %48 = and i16 %switch.shifted103, 1
  %switch.lobit104.not = icmp eq i16 %48, 0
  br i1 %switch.lobit104.not, label %41, label %switch.lookup101

switch.lookup101:                                 ; preds = %switch.hole_check100
  %49 = zext nneg i8 %switch.tableidx99 to i64
  %switch.gep105 = getelementptr inbounds [10 x i32], ptr @switch.table._ZN7nanoguiL21gl_map_texture_formatERNS_7Texture11PixelFormatERNS0_15ComponentFormatERjS5_S5_.5, i64 0, i64 %49
  %switch.load106 = load i32, ptr %switch.gep105, align 4
  store i32 %switch.load106, ptr %3, align 4
  br label %.thread

.thread:                                          ; preds = %switch.lookup101, %41
  %50 = load i32, ptr %2, align 4
  %51 = icmp eq i32 %50, 0
  br i1 %51, label %52, label %57

52:                                               ; preds = %.thread
  %53 = tail call ptr @__cxa_allocate_exception(i64 16) #8
  invoke void @_ZNSt13runtime_errorC1EPKc(ptr noundef nonnull align 8 dereferenceable(16) %53, ptr noundef nonnull @.str.10)
          to label %54 unwind label %55

54:                                               ; preds = %52
  tail call void @__cxa_throw(ptr nonnull %53, ptr nonnull @_ZTISt13runtime_error, ptr nonnull @_ZNSt13runtime_errorD1Ev) #9
  unreachable

55:                                               ; preds = %52
  %56 = landingpad { ptr, i32 }
          cleanup
  br label %66

57:                                               ; preds = %.thread
  %58 = load i32, ptr %4, align 4
  %59 = icmp eq i32 %58, 0
  br i1 %59, label %60, label %65

60:                                               ; preds = %57
  %61 = tail call ptr @__cxa_allocate_exception(i64 16) #8
  invoke void @_ZNSt13runtime_errorC1EPKc(ptr noundef nonnull align 8 dereferenceable(16) %61, ptr noundef nonnull @.str.11)
          to label %62 unwind label %63

62:                                               ; preds = %60
  tail call void @__cxa_throw(ptr nonnull %61, ptr nonnull @_ZTISt13runtime_error, ptr nonnull @_ZNSt13runtime_errorD1Ev) #9
  unreachable

63:                                               ; preds = %60
  %64 = landingpad { ptr, i32 }
          cleanup
  br label %66

65:                                               ; preds = %57
  ret void

66:                                               ; preds = %63, %55, %46
  %.sink70 = phi ptr [ %61, %63 ], [ %53, %55 ], [ %44, %46 ]
  %.pn = phi { ptr, i32 } [ %64, %63 ], [ %56, %55 ], [ %47, %46 ]
  tail call void @__cxa_free_exception(ptr %.sink70) #8
  resume { ptr, i32 } %.pn
}